target datalayout = "e-m:e-p270:32:32-p271:32:32-p272:64:64-i64:64-i128:128-f80:128-n8:16:32:64-S128"
target triple = "x86_64-pc-linux-gnu"

%"class.cv::Mat" = type { i32, i32, i32, i32, ptr, ptr, ptr, ptr, ptr, ptr, %"struct.cv::MatSize", %"struct.cv::MatStep" }
%"struct.cv::MatSize" = type { ptr }
%"struct.cv::MatStep" = type { ptr, [2 x i64] }

; Function Attrs: mustprogress uwtable
define hidden noundef i32 @_ZN6cvtest11cmpEps2_64fEPNS_2TSEPKdS3_idPKc(ptr noundef %0, ptr noundef %1, ptr noundef %2, i32 noundef %3, double noundef %4, ptr noundef %5) #6 personality ptr @__gxx_personality_v0 {
  %7 = alloca ptr, align 8
  %8 = alloca ptr, align 8
  %9 = alloca ptr, align 8
  %10 = alloca i32, align 4
  %11 = alloca double, align 8
  %12 = alloca ptr, align 8
  %13 = alloca %"class.cv::Mat", align 8
  %14 = alloca %"class.cv::Mat", align 8
  %15 = alloca ptr, align 8
  %16 = alloca i32, align 4
  store ptr %0, ptr %7, align 8
  store ptr %1, ptr %8, align 8
  store ptr %2, ptr %9, align 8
  store i32 %3, ptr %10, align 4
  store double %4, ptr %11, align 8
  store ptr %5, ptr %12, align 8
  %17 = load i32, ptr %10, align 4
  %18 = load ptr, ptr %8, align 8
  call void @_ZN2cv3MatC1EiiiPvm(ptr noundef nonnull align 8 dereferenceable(96) %13, i32 noundef 1, i32 noundef %17, i32 noundef 6, ptr noundef %18, i64 noundef 0)
  %19 = load i32, ptr %10, align 4
  %20 = load ptr, ptr %9, align 8
  invoke void @_ZN2cv3MatC1EiiiPvm(ptr noundef nonnull align 8 dereferenceable(96) %14, i32 noundef 1, i32 noundef %19, i32 noundef 6, ptr noundef %20, i64 noundef 0)
          to label %21 unwind label %27

21:                                               ; preds = %6
  %22 = load ptr, ptr %7, align 8
  %23 = load double, ptr %11, align 8
  %24 = load ptr, ptr %12, align 8
  %25 = invoke noundef i32 @_ZN6cvtest7cmpEps2EPNS_2TSERKN2cv3MatES5_dbPKc(ptr noundef %22, ptr noundef nonnull align 8 dereferenceable(96) %13, ptr noundef nonnull align 8 dereferenceable(96) %14, double noundef %23, i1 noundef zeroext true, ptr noundef %24)
          to label %26 unwind label %31

26:                                               ; preds = %21
  call void @_ZN2cv3MatD1Ev(ptr noundef nonnull align 8 dereferenceable(96) %14) #3
  call void @_ZN2cv3MatD1Ev(ptr noundef nonnull align 8 dereferenceable(96) %13) #3
  ret i32 %25

27:                                               ; preds = %6
  %28 = landingpad { ptr, i32 }
          cleanup
  %29 = extractvalue { ptr, i32 } %28, 0
  store ptr %29, ptr %15, align 8
  %30 = extractvalue { ptr, i32 } %28, 1
  store i32 %30, ptr %16, align 4
  br label %35

31:                                               ; preds = %21
  %32 = landingpad { ptr, i32 }
          cleanup
  %33 = extractvalue { ptr, i32 } %32, 0
  store ptr %33, ptr %15, align 8
  %34 = extractvalue { ptr, i32 } %32, 1
  store i32 %34, ptr %16, align 4
  call void @_ZN2cv3MatD1Ev(ptr noundef nonnull align 8 dereferenceable(96) %14) #3
  br label %35

35:                                               ; preds = %31, %27
  call void @_ZN2cv3MatD1Ev(ptr noundef nonnull align 8 dereferenceable(96) %13) #3
  br label %36

36:                                               ; preds = %35
  %37 = load ptr, ptr %15, align 8
  %38 = load i32, ptr %16, align 4
  %39 = insertvalue { ptr, i32 } poison, ptr %37, 0
  %40 = insertvalue { ptr, i32 } %39, i32 %38, 1
  resume { ptr, i32 } %40
}