; Function Attrs: mustprogress uwtable
define hidden noundef range(i32 -12, 1) i32 @_ZN6cvtest11cmpEps2_64fEPNS_2TSEPKdS3_idPKc(ptr noundef %0, ptr noundef %1, ptr noundef %2, i32 noundef %3, double noundef %4, ptr noundef %5) local_unnamed_addr #6 personality ptr @__gxx_personality_v0 {
  %7 = alloca %"class.cv::Mat", align 8
  %8 = alloca %"class.cv::Mat", align 8
  call void @_ZN2cv3MatC1EiiiPvm(ptr noundef nonnull align 8 dereferenceable(96) %7, i32 noundef 1, i32 noundef %3, i32 noundef 6, ptr noundef %1, i64 noundef 0)
  invoke void @_ZN2cv3MatC1EiiiPvm(ptr noundef nonnull align 8 dereferenceable(96) %8, i32 noundef 1, i32 noundef %3, i32 noundef 6, ptr noundef %2, i64 noundef 0)
          to label %9 unwind label %12

9:                                                ; preds = %6
  %10 = invoke noundef i32 @_ZN6cvtest7cmpEps2EPNS_2TSERKN2cv3MatES5_dbPKc(ptr noundef %0, ptr noundef nonnull align 8 dereferenceable(96) %7, ptr noundef nonnull align 8 dereferenceable(96) %8, double noundef %4, i1 noundef zeroext true, ptr noundef %5)
          to label %11 unwind label %14

11:                                               ; preds = %9
  call void @_ZN2cv3MatD1Ev(ptr noundef nonnull align 8 dereferenceable(96) %8) #28
  call void @_ZN2cv3MatD1Ev(ptr noundef nonnull align 8 dereferenceable(96) %7) #28
  ret i32 %10

12:                                               ; preds = %6
  %13 = landingpad { ptr, i32 }
          cleanup
  br label %16

14:                                               ; preds = %9
  %15 = landingpad { ptr, i32 }
          cleanup
  call void @_ZN2cv3MatD1Ev(ptr noundef nonnull align 8 dereferenceable(96) %8) #28
  br label %16

16:                                               ; preds = %14, %12
  %.pn = phi { ptr, i32 } [ %15, %14 ], [ %13, %12 ]
  call void @_ZN2cv3MatD1Ev(ptr noundef nonnull align 8 dereferenceable(96) %7) #28
  resume { ptr, i32 } %.pn
}